; Function Attrs: nounwind uwtable
define dso_local zeroext i1 @Curl_on_disconnect(ptr noundef %0, ptr noundef %1, i1 noundef zeroext %2) local_unnamed_addr #0 {
  %4 = getelementptr inbounds nuw i8, ptr %1, i64 72
  %5 = load ptr, ptr %4, align 8, !tbaa !196
  %.not = icmp eq ptr %5, null
  br i1 %.not, label %7, label %6

6:                                                ; preds = %3
  tail call void @Curl_resolv_unlink(ptr noundef %0, ptr noundef nonnull %4) #12
  br label %7

7:                                                ; preds = %6, %3
  tail call void @Curl_http_auth_cleanup_ntlm(ptr noundef nonnull %1) #12
  %8 = getelementptr inbounds nuw i8, ptr %1, i64 1373
  %9 = load i8, ptr %8, align 1, !tbaa !197
  %.not5 = icmp ne i8 %9, 0
  %spec.select = or i1 %2, %.not5
  ret i1 %spec.select
}